target datalayout = "e-m:e-p270:32:32-p271:32:32-p272:64:64-i64:64-i128:128-f80:128-n8:16:32:64-S128"
target triple = "x86_64-pc-linux-gnu"

%struct.re_pattern_buffer = type { ptr, ptr, ptr, i32, i32, ptr, ptr, i32, i32, i32, i32, i32, i32, i32, i32, i32, ptr, ptr, i32, ptr, i32, ptr, i32, i32, i32, i32, i32, i32, ptr, ptr, [256 x i8], i32, i32, i32, ptr }
%struct.Operation = type { ptr, %union.anon }
%union.anon = type { %struct.anon.0 }
%struct.anon.0 = type { ptr, i32 }

; Function Attrs: nounwind uwtable
define internal i32 @ops_resize(ptr noundef %0, i32 noundef %1) #0 {
  %3 = alloca i32, align 4
  %4 = alloca ptr, align 8
  %5 = alloca i32, align 4
  %6 = alloca ptr, align 8
  %7 = alloca ptr, align 8
  %8 = alloca i64, align 8
  %9 = alloca i32, align 4
  store ptr %0, ptr %4, align 8, !tbaa !8
  store i32 %1, ptr %5, align 4, !tbaa !4
  call void @llvm.lifetime.start.p0(i64 8, ptr %6) #9
  call void @llvm.lifetime.start.p0(i64 8, ptr %7) #9
  call void @llvm.lifetime.start.p0(i64 8, ptr %8) #9
  %10 = load i32, ptr %5, align 4, !tbaa !4
  %11 = load ptr, ptr %4, align 8, !tbaa !8
  %12 = getelementptr inbounds nuw %struct.re_pattern_buffer, ptr %11, i32 0, i32 4
  %13 = load i32, ptr %12, align 4, !tbaa !36
  %14 = icmp eq i32 %10, %13
  br i1 %14, label %15, label %16

15:                                               ; preds = %2
  store i32 0, ptr %3, align 4
  store i32 1, ptr %9, align 4
  br label %74

16:                                               ; preds = %2
  %17 = load i32, ptr %5, align 4, !tbaa !4
  %18 = icmp sle i32 %17, 0
  br i1 %18, label %19, label %20

19:                                               ; preds = %16
  store i32 -11, ptr %3, align 4
  store i32 1, ptr %9, align 4
  br label %74

20:                                               ; preds = %16
  %21 = load i32, ptr %5, align 4, !tbaa !4
  %22 = sext i32 %21 to i64
  %23 = mul i64 24, %22
  store i64 %23, ptr %8, align 8, !tbaa !56
  %24 = load ptr, ptr %4, align 8, !tbaa !8
  %25 = getelementptr inbounds nuw %struct.re_pattern_buffer, ptr %24, i32 0, i32 0
  %26 = load ptr, ptr %25, align 8, !tbaa !29
  %27 = load i64, ptr %8, align 8, !tbaa !56
  %28 = call ptr @realloc(ptr noundef %26, i64 noundef %27) #11
  store ptr %28, ptr %7, align 8, !tbaa !15
  %29 = load ptr, ptr %7, align 8, !tbaa !15
  %30 = icmp eq ptr %29, null
  br i1 %30, label %31, label %32

31:                                               ; preds = %20
  store i32 -5, ptr %3, align 4
  store i32 1, ptr %9, align 4
  br label %74

32:                                               ; preds = %20
  %33 = load ptr, ptr %7, align 8, !tbaa !15
  %34 = load ptr, ptr %4, align 8, !tbaa !8
  %35 = getelementptr inbounds nuw %struct.re_pattern_buffer, ptr %34, i32 0, i32 0
  store ptr %33, ptr %35, align 8, !tbaa !29
  %36 = load i32, ptr %5, align 4, !tbaa !4
  %37 = sext i32 %36 to i64
  %38 = mul i64 4, %37
  store i64 %38, ptr %8, align 8, !tbaa !56
  %39 = load ptr, ptr %4, align 8, !tbaa !8
  %40 = getelementptr inbounds nuw %struct.re_pattern_buffer, ptr %39, i32 0, i32 1
  %41 = load ptr, ptr %40, align 8, !tbaa !31
  %42 = load i64, ptr %8, align 8, !tbaa !56
  %43 = call ptr @realloc(ptr noundef %41, i64 noundef %42) #11
  store ptr %43, ptr %6, align 8, !tbaa !15
  %44 = load ptr, ptr %6, align 8, !tbaa !15
  %45 = icmp eq ptr %44, null
  br i1 %45, label %46, label %47

46:                                               ; preds = %32
  store i32 -5, ptr %3, align 4
  store i32 1, ptr %9, align 4
  br label %74

47:                                               ; preds = %32
  %48 = load ptr, ptr %6, align 8, !tbaa !15
  %49 = load ptr, ptr %4, align 8, !tbaa !8
  %50 = getelementptr inbounds nuw %struct.re_pattern_buffer, ptr %49, i32 0, i32 1
  store ptr %48, ptr %50, align 8, !tbaa !31
  %51 = load i32, ptr %5, align 4, !tbaa !4
  %52 = load ptr, ptr %4, align 8, !tbaa !8
  %53 = getelementptr inbounds nuw %struct.re_pattern_buffer, ptr %52, i32 0, i32 4
  store i32 %51, ptr %53, align 4, !tbaa !36
  %54 = load ptr, ptr %4, align 8, !tbaa !8
  %55 = getelementptr inbounds nuw %struct.re_pattern_buffer, ptr %54, i32 0, i32 3
  %56 = load i32, ptr %55, align 8, !tbaa !30
  %57 = icmp eq i32 %56, 0
  br i1 %57, label %58, label %61

58:                                               ; preds = %47
  %59 = load ptr, ptr %4, align 8, !tbaa !8
  %60 = getelementptr inbounds nuw %struct.re_pattern_buffer, ptr %59, i32 0, i32 2
  store ptr null, ptr %60, align 8, !tbaa !35
  br label %73

61:                                               ; preds = %47
  %62 = load ptr, ptr %4, align 8, !tbaa !8
  %63 = getelementptr inbounds nuw %struct.re_pattern_buffer, ptr %62, i32 0, i32 0
  %64 = load ptr, ptr %63, align 8, !tbaa !29
  %65 = load ptr, ptr %4, align 8, !tbaa !8
  %66 = getelementptr inbounds nuw %struct.re_pattern_buffer, ptr %65, i32 0, i32 3
  %67 = load i32, ptr %66, align 8, !tbaa !30
  %68 = sub i32 %67, 1
  %69 = zext i32 %68 to i64
  %70 = getelementptr inbounds nuw %struct.Operation, ptr %64, i64 %69
  %71 = load ptr, ptr %4, align 8, !tbaa !8
  %72 = getelementptr inbounds nuw %struct.re_pattern_buffer, ptr %71, i32 0, i32 2
  store ptr %70, ptr %72, align 8, !tbaa !35
  br label %73

73:                                               ; preds = %61, %58
  store i32 0, ptr %3, align 4
  store i32 1, ptr %9, align 4
  br label %74

74:                                               ; preds = %73, %46, %31, %19, %15
  call void @llvm.lifetime.end.p0(i64 8, ptr %8) #9
  call void @llvm.lifetime.end.p0(i64 8, ptr %7) #9
  call void @llvm.lifetime.end.p0(i64 8, ptr %6) #9
  %75 = load i32, ptr %3, align 4
  ret i32 %75
}

; Function Attrs: nounwind uwtable
define internal i32 @ops_new(ptr noundef %0) #0 {
  %2 = alloca i32, align 4
  %3 = alloca ptr, align 8
  %4 = alloca i32, align 4
  %5 = alloca i32, align 4
  store ptr %0, ptr %3, align 8, !tbaa !8
  %6 = load ptr, ptr %3, align 8, !tbaa !8
  %7 = getelementptr inbounds nuw %struct.re_pattern_buffer, ptr %6, i32 0, i32 3
  %8 = load i32, ptr %7, align 8, !tbaa !30
  %9 = load ptr, ptr %3, align 8, !tbaa !8
  %10 = getelementptr inbounds nuw %struct.re_pattern_buffer, ptr %9, i32 0, i32 4
  %11 = load i32, ptr %10, align 4, !tbaa !36
  %12 = icmp uge i32 %8, %11
  br i1 %12, label %13, label %28

13:                                               ; preds = %1
  call void @llvm.lifetime.start.p0(i64 4, ptr %4) #9
  %14 = load ptr, ptr %3, align 8, !tbaa !8
  %15 = load ptr, ptr %3, align 8, !tbaa !8
  %16 = getelementptr inbounds nuw %struct.re_pattern_buffer, ptr %15, i32 0, i32 4
  %17 = load i32, ptr %16, align 4, !tbaa !36
  %18 = shl i32 %17, 1
  %19 = call i32 @ops_resize(ptr noundef %14, i32 noundef %18)
  store i32 %19, ptr %4, align 4, !tbaa !4
  %20 = load i32, ptr %4, align 4, !tbaa !4
  %21 = icmp ne i32 %20, 0
  br i1 %21, label %22, label %24

22:                                               ; preds = %13
  %23 = load i32, ptr %4, align 4, !tbaa !4
  store i32 %23, ptr %2, align 4
  store i32 1, ptr %5, align 4
  br label %25

24:                                               ; preds = %13
  store i32 0, ptr %5, align 4
  br label %25

25:                                               ; preds = %24, %22
  call void @llvm.lifetime.end.p0(i64 4, ptr %4) #9
  %26 = load i32, ptr %5, align 4
  switch i32 %26, label %48 [
    i32 0, label %27
    i32 1, label %46
  ]

27:                                               ; preds = %25
  br label %28

28:                                               ; preds = %27, %1
  %29 = load ptr, ptr %3, align 8, !tbaa !8
  %30 = getelementptr inbounds nuw %struct.re_pattern_buffer, ptr %29, i32 0, i32 0
  %31 = load ptr, ptr %30, align 8, !tbaa !29
  %32 = load ptr, ptr %3, align 8, !tbaa !8
  %33 = getelementptr inbounds nuw %struct.re_pattern_buffer, ptr %32, i32 0, i32 3
  %34 = load i32, ptr %33, align 8, !tbaa !30
  %35 = zext i32 %34 to i64
  %36 = getelementptr inbounds nuw %struct.Operation, ptr %31, i64 %35
  %37 = load ptr, ptr %3, align 8, !tbaa !8
  %38 = getelementptr inbounds nuw %struct.re_pattern_buffer, ptr %37, i32 0, i32 2
  store ptr %36, ptr %38, align 8, !tbaa !35
  %39 = load ptr, ptr %3, align 8, !tbaa !8
  %40 = getelementptr inbounds nuw %struct.re_pattern_buffer, ptr %39, i32 0, i32 3
  %41 = load i32, ptr %40, align 8, !tbaa !30
  %42 = add i32 %41, 1
  store i32 %42, ptr %40, align 8, !tbaa !30
  %43 = load ptr, ptr %3, align 8, !tbaa !8
  %44 = getelementptr inbounds nuw %struct.re_pattern_buffer, ptr %43, i32 0, i32 2
  %45 = load ptr, ptr %44, align 8, !tbaa !35
  call void @llvm.memset.p0.i64(ptr align 8 %45, i8 0, i64 24, i1 false)
  store i32 0, ptr %2, align 4
  br label %46

46:                                               ; preds = %28, %25
  %47 = load i32, ptr %2, align 4
  ret i32 %47

48:                                               ; preds = %25
  unreachable
}

; Function Attrs: nounwind uwtable
define internal i32 @add_op(ptr noundef %0, i32 noundef %1) #0 {
  %3 = alloca i32, align 4
  %4 = alloca ptr, align 8
  %5 = alloca i32, align 4
  %6 = alloca i32, align 4
  %7 = alloca i32, align 4
  store ptr %0, ptr %4, align 8, !tbaa !8
  store i32 %1, ptr %5, align 4, !tbaa !4
  call void @llvm.lifetime.start.p0(i64 4, ptr %6) #9
  %8 = load ptr, ptr %4, align 8, !tbaa !8
  %9 = call i32 @ops_new(ptr noundef %8)
  store i32 %9, ptr %6, align 4, !tbaa !4
  %10 = load i32, ptr %6, align 4, !tbaa !4
  %11 = icmp ne i32 %10, 0
  br i1 %11, label %12, label %14

12:                                               ; preds = %2
  %13 = load i32, ptr %6, align 4, !tbaa !4
  store i32 %13, ptr %3, align 4
  store i32 1, ptr %7, align 4
  br label %30

14:                                               ; preds = %2
  %15 = load i32, ptr %5, align 4, !tbaa !4
  %16 = load ptr, ptr %4, align 8, !tbaa !8
  %17 = getelementptr inbounds nuw %struct.re_pattern_buffer, ptr %16, i32 0, i32 1
  %18 = load ptr, ptr %17, align 8, !tbaa !31
  %19 = load ptr, ptr %4, align 8, !tbaa !8
  %20 = getelementptr inbounds nuw %struct.re_pattern_buffer, ptr %19, i32 0, i32 2
  %21 = load ptr, ptr %20, align 8, !tbaa !35
  %22 = load ptr, ptr %4, align 8, !tbaa !8
  %23 = getelementptr inbounds nuw %struct.re_pattern_buffer, ptr %22, i32 0, i32 0
  %24 = load ptr, ptr %23, align 8, !tbaa !29
  %25 = ptrtoint ptr %21 to i64
  %26 = ptrtoint ptr %24 to i64
  %27 = sub i64 %25, %26
  %28 = sdiv exact i64 %27, 24
  %29 = getelementptr inbounds i32, ptr %18, i64 %28
  store i32 %15, ptr %29, align 4, !tbaa !4
  store i32 0, ptr %3, align 4
  store i32 1, ptr %7, align 4
  br label %30

30:                                               ; preds = %14, %12
  call void @llvm.lifetime.end.p0(i64 4, ptr %6) #9
  %31 = load i32, ptr %3, align 4
  ret i32 %31
}