; Function Attrs: mustprogress nounwind willreturn uwtable
define internal fastcc range(i32 -11, 1) i32 @add_op(ptr noundef captures(none) %0, i32 noundef %1) unnamed_addr #10 {
  %3 = getelementptr inbounds nuw i8, ptr %0, i64 24
  %4 = load i32, ptr %3, align 8, !tbaa !18
  %5 = getelementptr inbounds nuw i8, ptr %0, i64 28
  %6 = load i32, ptr %5, align 4, !tbaa !30
  %.not.i = icmp ult i32 %4, %6
  br i1 %.not.i, label %25, label %7

7:                                                ; preds = %2
  %8 = shl i32 %6, 1
  %9 = icmp eq i32 %6, 0
  br i1 %9, label %25, label %10

10:                                               ; preds = %7
  %11 = icmp slt i32 %8, 1
  br i1 %11, label %ops_new.exit.thread, label %12

12:                                               ; preds = %10
  %13 = zext nneg i32 %8 to i64
  %14 = mul nuw nsw i64 %13, 24
  %15 = load ptr, ptr %0, align 8, !tbaa !17
  %16 = tail call ptr @realloc(ptr noundef %15, i64 noundef %14) #23
  %17 = icmp eq ptr %16, null
  br i1 %17, label %ops_new.exit.thread, label %18

18:                                               ; preds = %12
  store ptr %16, ptr %0, align 8, !tbaa !17
  %19 = shl nuw nsw i64 %13, 2
  %20 = getelementptr inbounds nuw i8, ptr %0, i64 8
  %21 = load ptr, ptr %20, align 8, !tbaa !19
  %22 = tail call ptr @realloc(ptr noundef %21, i64 noundef %19) #23
  %23 = icmp eq ptr %22, null
  br i1 %23, label %ops_new.exit.thread, label %.sink.split.i.i

.sink.split.i.i:                                  ; preds = %18
  store ptr %22, ptr %20, align 8, !tbaa !19
  store i32 %8, ptr %5, align 4, !tbaa !30
  %24 = load i32, ptr %3, align 8, !tbaa !18
  br label %25

25:                                               ; preds = %.sink.split.i.i, %7, %2
  %26 = phi i32 [ %24, %.sink.split.i.i ], [ %4, %7 ], [ %4, %2 ]
  %27 = load ptr, ptr %0, align 8, !tbaa !17
  %28 = zext i32 %26 to i64
  %29 = getelementptr inbounds nuw %struct.Operation, ptr %27, i64 %28
  %30 = getelementptr inbounds nuw i8, ptr %0, i64 16
  store ptr %29, ptr %30, align 8, !tbaa !31
  %31 = add i32 %26, 1
  store i32 %31, ptr %3, align 8, !tbaa !18
  tail call void @llvm.memset.p0.i64(ptr noundef nonnull align 8 dereferenceable(24) %29, i8 0, i64 24, i1 false)
  %32 = getelementptr inbounds nuw i8, ptr %0, i64 8
  %33 = load ptr, ptr %32, align 8, !tbaa !19
  %34 = load ptr, ptr %30, align 8, !tbaa !31
  %35 = load ptr, ptr %0, align 8, !tbaa !17
  %36 = ptrtoint ptr %34 to i64
  %37 = ptrtoint ptr %35 to i64
  %38 = sub i64 %36, %37
  %39 = sdiv exact i64 %38, 6
  %40 = getelementptr inbounds i8, ptr %33, i64 %39
  store i32 %1, ptr %40, align 4, !tbaa !4
  br label %ops_new.exit.thread

ops_new.exit.thread:                              ; preds = %10, %12, %18, %25
  %.0 = phi i32 [ 0, %25 ], [ -11, %10 ], [ -5, %12 ], [ -5, %18 ]
  ret i32 %.0
}